; Function Attrs: mustprogress uwtable
define hidden void @_ZN11mpf_manager8mk_nzeroEjjR3mpf(ptr noundef nonnull align 8 dereferenceable(840) %this, i32 noundef %ebits, i32 noundef %sbits, ptr nocapture noundef nonnull align 8 dereferenceable(32) %o) local_unnamed_addr #5 align 2 {
entry:
  %bf.load = load i32, ptr %o, align 8
  %bf.value = shl i32 %sbits, 15
  %bf.shl = and i32 %bf.value, 2147450880
  %bf.clear = and i32 %bf.load, -2147483648
  %bf.value3 = and i32 %ebits, 32767
  %bf.set = or disjoint i32 %bf.shl, %bf.value3
  %bf.set5 = or disjoint i32 %bf.set, %bf.clear
  store i32 %bf.set5, ptr %o, align 8
  %m_mpz_manager.i = getelementptr inbounds i8, ptr %this, i64 728
  %0 = load ptr, ptr %m_mpz_manager.i, align 8
  %m_powers2.i = getelementptr inbounds i8, ptr %this, i64 736
  %sub.i = add i32 %ebits, -1
  %call.i = tail call noundef nonnull align 8 dereferenceable(16) ptr @_ZN11mpf_manager7powers22m1Ejb(ptr noundef nonnull align 8 dereferenceable(104) %m_powers2.i, i32 noundef %sub.i, i1 noundef zeroext true)
  %call2.i = tail call noundef i64 @_ZNK11mpz_managerILb0EE9get_int64ERK3mpz(ptr noundef nonnull align 8 dereferenceable(600) %0, ptr noundef nonnull align 8 dereferenceable(16) %call.i)
  %exponent = getelementptr inbounds i8, ptr %o, i64 24
  store i64 %call2.i, ptr %exponent, align 8
  %significand = getelementptr inbounds i8, ptr %o, i64 8
  store i32 0, ptr %significand, align 8
  %m_kind.i = getelementptr inbounds i8, ptr %o, i64 12
  %bf.load.i = load i8, ptr %m_kind.i, align 4
  %bf.clear.i = and i8 %bf.load.i, -2
  store i8 %bf.clear.i, ptr %m_kind.i, align 4
  %bf.load6 = load i32, ptr %o, align 8
  %bf.set8 = or i32 %bf.load6, -2147483648
  store i32 %bf.set8, ptr %o, align 8
  ret void
}